; Function Attrs: nounwind sspstrong uwtable
define internal i64 @dir_s_aref(ptr readnone captures(none) %0, i64 %1, i64 noundef %2, i64 noundef %3, i64 noundef %4) #0 {
  %6 = alloca i64, align 8
  %7 = alloca ptr, align 8
  %8 = tail call i32 @rb_bool_expected(i64 noundef %4, ptr noundef nonnull @.str.69, i32 noundef 1) #22
  %.not.i = icmp eq i32 %8, 0
  %9 = select i1 %.not.i, i32 64, i32 0
  call void @llvm.lifetime.start.p0(i64 8, ptr nonnull %6)
  store i64 %3, ptr %6, align 8, !tbaa !7
  %10 = and i64 %3, -33
  %11 = icmp eq i64 %10, 4
  br i1 %11, label %dir_glob_option_base.exit, label %12

12:                                               ; preds = %5
  %13 = tail call i32 @rb_typeddata_is_kind_of(i64 noundef %3, ptr noundef nonnull @dir_data_type) #22
  %.not.i10 = icmp eq i32 %13, 0
  br i1 %.not.i10, label %14, label %dir_glob_option_base.exit

14:                                               ; preds = %12
  %15 = tail call i64 @rb_get_path(i64 noundef %3) #22
  call void @llvm.lifetime.start.p0(i64 8, ptr nonnull %7) #22
  store ptr %6, ptr %7, align 8, !tbaa !47
  call void asm sideeffect "", "*m,~{dirflag},~{fpsr},~{flags}"(ptr nonnull elementtype(ptr) %7) #22, !srcloc !117
  %16 = load ptr, ptr %7, align 8, !tbaa !47
  call void @llvm.lifetime.end.p0(i64 8, ptr nonnull %7) #22
  store volatile i64 %15, ptr %16, align 8, !tbaa !7
  %17 = load i64, ptr %6, align 8, !tbaa !7
  %18 = inttoptr i64 %17 to ptr
  %19 = getelementptr inbounds nuw i8, ptr %18, i64 16
  %20 = load i64, ptr %19, align 8, !tbaa !118
  %.not1.i = icmp eq i64 %20, 0
  %..i = select i1 %.not1.i, i64 4, i64 %17
  br label %dir_glob_option_base.exit

dir_glob_option_base.exit:                        ; preds = %5, %12, %14
  %.0.i = phi i64 [ 4, %5 ], [ %..i, %14 ], [ %3, %12 ]
  call void @llvm.lifetime.end.p0(i64 8, ptr nonnull %6)
  %21 = inttoptr i64 %2 to ptr
  %22 = load i64, ptr %21, align 8, !tbaa !61
  %23 = and i64 %22, 8192
  %.not.i11 = icmp eq i64 %23, 0
  br i1 %.not.i11, label %rb_array_len.exit, label %rb_array_len.exit.thread

rb_array_len.exit:                                ; preds = %dir_glob_option_base.exit
  %24 = getelementptr inbounds nuw i8, ptr %21, i64 16
  %25 = load i64, ptr %24, align 8, !tbaa !19
  %26 = icmp eq i64 %25, 1
  br i1 %26, label %30, label %35

rb_array_len.exit.thread:                         ; preds = %dir_glob_option_base.exit
  %27 = and i64 %22, 4161536
  %28 = icmp eq i64 %27, 32768
  br i1 %28, label %.thread, label %35

.thread:                                          ; preds = %rb_array_len.exit.thread
  %29 = getelementptr inbounds nuw i8, ptr %21, i64 16
  br label %RARRAY_AREF.exit

30:                                               ; preds = %rb_array_len.exit
  %31 = getelementptr inbounds nuw i8, ptr %21, i64 32
  %32 = load ptr, ptr %31, align 8, !tbaa !19
  br label %RARRAY_AREF.exit

RARRAY_AREF.exit:                                 ; preds = %.thread, %30
  %.0.i.i = phi ptr [ %29, %.thread ], [ %32, %30 ]
  %33 = load i64, ptr %.0.i.i, align 8, !tbaa !7
  %34 = call fastcc i64 @rb_push_glob(i64 noundef %33, i64 noundef %.0.i, i32 noundef %9)
  br label %37

35:                                               ; preds = %rb_array_len.exit.thread, %rb_array_len.exit
  %36 = call fastcc i64 @dir_globs(i64 noundef %2, i64 noundef %.0.i, i32 noundef %9)
  br label %37

37:                                               ; preds = %35, %RARRAY_AREF.exit
  %.0 = phi i64 [ %34, %RARRAY_AREF.exit ], [ %36, %35 ]
  ret i64 %.0
}